target datalayout = "e-m:e-p270:32:32-p271:32:32-p272:64:64-i64:64-i128:128-f80:128-n8:16:32:64-S128"
target triple = "x86_64-pc-linux-gnu"

%struct.pollfd = type { i32, i16, i16 }
%struct.URLContext = type { ptr, ptr, ptr, ptr, i32, i32, i32, i32, %struct.AVIOInterruptCB, i64, ptr, ptr, i32 }
%struct.AVIOInterruptCB = type { ptr, ptr }

@.str.1 = private unnamed_addr constant [33 x i8] c"setsockopt(SO_REUSEADDR) failed\0A\00", align 1
@.str.2 = private unnamed_addr constant [27 x i8] c"ff_socket_nonblock failed\0A\00", align 1

; Function Attrs: nounwind uwtable
define i32 @ff_accept(i32 noundef %0, i32 noundef %1, ptr noundef %2) #0 {
  %4 = alloca i32, align 4
  %5 = alloca i32, align 4
  %6 = alloca i32, align 4
  %7 = alloca ptr, align 8
  %8 = alloca i32, align 4
  %9 = alloca %struct.pollfd, align 4
  %10 = alloca i32, align 4
  store i32 %0, ptr %5, align 4, !tbaa !4
  store i32 %1, ptr %6, align 4, !tbaa !4
  store ptr %2, ptr %7, align 8, !tbaa !27
  call void @llvm.lifetime.start.p0(i64 4, ptr %8) #10
  call void @llvm.lifetime.start.p0(i64 8, ptr %9) #10
  %11 = getelementptr inbounds nuw %struct.pollfd, ptr %9, i32 0, i32 0
  %12 = load i32, ptr %5, align 4, !tbaa !4
  store i32 %12, ptr %11, align 4, !tbaa !8
  %13 = getelementptr inbounds nuw %struct.pollfd, ptr %9, i32 0, i32 1
  store i16 1, ptr %13, align 4, !tbaa !11
  %14 = getelementptr inbounds nuw %struct.pollfd, ptr %9, i32 0, i32 2
  store i16 0, ptr %14, align 2, !tbaa !12
  %15 = load i32, ptr %6, align 4, !tbaa !4
  %16 = load ptr, ptr %7, align 8, !tbaa !27
  %17 = getelementptr inbounds nuw %struct.URLContext, ptr %16, i32 0, i32 8
  %18 = call i32 @ff_poll_interrupt(ptr noundef %9, i64 noundef 1, i32 noundef %15, ptr noundef %17)
  store i32 %18, ptr %8, align 4, !tbaa !4
  %19 = load i32, ptr %8, align 4, !tbaa !4
  %20 = icmp slt i32 %19, 0
  br i1 %20, label %21, label %23

21:                                               ; preds = %3
  %22 = load i32, ptr %8, align 4, !tbaa !4
  store i32 %22, ptr %4, align 4
  store i32 1, ptr %10, align 4
  br label %40

23:                                               ; preds = %3
  %24 = load i32, ptr %5, align 4, !tbaa !4
  %25 = call i32 @accept(i32 noundef %24, ptr noundef null, ptr noundef null)
  store i32 %25, ptr %8, align 4, !tbaa !4
  %26 = load i32, ptr %8, align 4, !tbaa !4
  %27 = icmp slt i32 %26, 0
  br i1 %27, label %28, label %32

28:                                               ; preds = %23
  %29 = call ptr @__errno_location() #11
  %30 = load i32, ptr %29, align 4, !tbaa !4
  %31 = sub nsw i32 0, %30
  store i32 %31, ptr %4, align 4
  store i32 1, ptr %10, align 4
  br label %40

32:                                               ; preds = %23
  %33 = load i32, ptr %8, align 4, !tbaa !4
  %34 = call i32 @ff_socket_nonblock(i32 noundef %33, i32 noundef 1)
  %35 = icmp slt i32 %34, 0
  br i1 %35, label %36, label %38

36:                                               ; preds = %32
  %37 = load ptr, ptr %7, align 8, !tbaa !27
  call void (ptr, i32, ptr, ...) @av_log(ptr noundef %37, i32 noundef 48, ptr noundef @.str.2)
  br label %38

38:                                               ; preds = %36, %32
  %39 = load i32, ptr %8, align 4, !tbaa !4
  store i32 %39, ptr %4, align 4
  store i32 1, ptr %10, align 4
  br label %40

40:                                               ; preds = %38, %28, %21
  call void @llvm.lifetime.end.p0(i64 8, ptr %9) #10
  call void @llvm.lifetime.end.p0(i64 4, ptr %8) #10
  %41 = load i32, ptr %4, align 4
  ret i32 %41
}

; Function Attrs: nounwind uwtable
define i32 @ff_listen(i32 noundef %0, ptr noundef %1, i32 noundef %2, ptr noundef %3) #0 {
  %5 = alloca i32, align 4
  %6 = alloca i32, align 4
  %7 = alloca ptr, align 8
  %8 = alloca i32, align 4
  %9 = alloca ptr, align 8
  %10 = alloca i32, align 4
  %11 = alloca i32, align 4
  %12 = alloca i32, align 4
  store i32 %0, ptr %6, align 4, !tbaa !4
  store ptr %1, ptr %7, align 8, !tbaa !18
  store i32 %2, ptr %8, align 4, !tbaa !4
  store ptr %3, ptr %9, align 8, !tbaa !26
  call void @llvm.lifetime.start.p0(i64 4, ptr %10) #10
  call void @llvm.lifetime.start.p0(i64 4, ptr %11) #10
  store i32 1, ptr %11, align 4, !tbaa !4
  %13 = load i32, ptr %6, align 4, !tbaa !4
  %14 = call i32 @setsockopt(i32 noundef %13, i32 noundef 1, i32 noundef 2, ptr noundef %11, i32 noundef 4) #10
  %15 = icmp ne i32 %14, 0
  br i1 %15, label %16, label %18

16:                                               ; preds = %4
  %17 = load ptr, ptr %9, align 8, !tbaa !26
  call void (ptr, i32, ptr, ...) @av_log(ptr noundef %17, i32 noundef 24, ptr noundef @.str.1)
  br label %18

18:                                               ; preds = %16, %4
  %19 = load i32, ptr %6, align 4, !tbaa !4
  %20 = load ptr, ptr %7, align 8, !tbaa !18
  %21 = load i32, ptr %8, align 4, !tbaa !4
  %22 = call i32 @bind(i32 noundef %19, ptr noundef %20, i32 noundef %21) #10
  store i32 %22, ptr %10, align 4, !tbaa !4
  %23 = load i32, ptr %10, align 4, !tbaa !4
  %24 = icmp ne i32 %23, 0
  br i1 %24, label %25, label %29

25:                                               ; preds = %18
  %26 = call ptr @__errno_location() #11
  %27 = load i32, ptr %26, align 4, !tbaa !4
  %28 = sub nsw i32 0, %27
  store i32 %28, ptr %5, align 4
  store i32 1, ptr %12, align 4
  br label %40

29:                                               ; preds = %18
  %30 = load i32, ptr %6, align 4, !tbaa !4
  %31 = call i32 @listen(i32 noundef %30, i32 noundef 1) #10
  store i32 %31, ptr %10, align 4, !tbaa !4
  %32 = load i32, ptr %10, align 4, !tbaa !4
  %33 = icmp ne i32 %32, 0
  br i1 %33, label %34, label %38

34:                                               ; preds = %29
  %35 = call ptr @__errno_location() #11
  %36 = load i32, ptr %35, align 4, !tbaa !4
  %37 = sub nsw i32 0, %36
  store i32 %37, ptr %5, align 4
  store i32 1, ptr %12, align 4
  br label %40

38:                                               ; preds = %29
  %39 = load i32, ptr %10, align 4, !tbaa !4
  store i32 %39, ptr %5, align 4
  store i32 1, ptr %12, align 4
  br label %40

40:                                               ; preds = %38, %34, %25
  call void @llvm.lifetime.end.p0(i64 4, ptr %11) #10
  call void @llvm.lifetime.end.p0(i64 4, ptr %10) #10
  %41 = load i32, ptr %5, align 4
  ret i32 %41
}

; Function Attrs: nounwind uwtable
define i32 @ff_listen_bind(i32 noundef %0, ptr noundef %1, i32 noundef %2, i32 noundef %3, ptr noundef %4) #0 {
  %6 = alloca i32, align 4
  %7 = alloca i32, align 4
  %8 = alloca ptr, align 8
  %9 = alloca i32, align 4
  %10 = alloca i32, align 4
  %11 = alloca ptr, align 8
  %12 = alloca i32, align 4
  %13 = alloca i32, align 4
  store i32 %0, ptr %7, align 4, !tbaa !4
  store ptr %1, ptr %8, align 8, !tbaa !18
  store i32 %2, ptr %9, align 4, !tbaa !4
  store i32 %3, ptr %10, align 4, !tbaa !4
  store ptr %4, ptr %11, align 8, !tbaa !27
  call void @llvm.lifetime.start.p0(i64 4, ptr %12) #10
  %14 = load i32, ptr %7, align 4, !tbaa !4
  %15 = load ptr, ptr %8, align 8, !tbaa !18
  %16 = load i32, ptr %9, align 4, !tbaa !4
  %17 = load ptr, ptr %11, align 8, !tbaa !27
  %18 = call i32 @ff_listen(i32 noundef %14, ptr noundef %15, i32 noundef %16, ptr noundef %17)
  store i32 %18, ptr %12, align 4, !tbaa !4
  %19 = icmp slt i32 %18, 0
  br i1 %19, label %20, label %22

20:                                               ; preds = %5
  %21 = load i32, ptr %12, align 4, !tbaa !4
  store i32 %21, ptr %6, align 4
  store i32 1, ptr %13, align 4
  br label %34

22:                                               ; preds = %5
  %23 = load i32, ptr %7, align 4, !tbaa !4
  %24 = load i32, ptr %10, align 4, !tbaa !4
  %25 = load ptr, ptr %11, align 8, !tbaa !27
  %26 = call i32 @ff_accept(i32 noundef %23, i32 noundef %24, ptr noundef %25)
  store i32 %26, ptr %12, align 4, !tbaa !4
  %27 = icmp slt i32 %26, 0
  br i1 %27, label %28, label %30

28:                                               ; preds = %22
  %29 = load i32, ptr %12, align 4, !tbaa !4
  store i32 %29, ptr %6, align 4
  store i32 1, ptr %13, align 4
  br label %34

30:                                               ; preds = %22
  %31 = load i32, ptr %7, align 4, !tbaa !4
  %32 = call i32 @close(i32 noundef %31)
  %33 = load i32, ptr %12, align 4, !tbaa !4
  store i32 %33, ptr %6, align 4
  store i32 1, ptr %13, align 4
  br label %34

34:                                               ; preds = %30, %28, %20
  call void @llvm.lifetime.end.p0(i64 4, ptr %12) #10
  %35 = load i32, ptr %6, align 4
  ret i32 %35
}