; Function Attrs: nounwind uwtable
define range(i32 -2147483647, -2147483648) i32 @ff_listen_bind(i32 noundef %0, ptr noundef %1, i32 noundef %2, i32 noundef %3, ptr noundef %4) local_unnamed_addr #1 {
  %6 = alloca %struct.pollfd, align 4
  %7 = alloca i32, align 4
  call void @llvm.lifetime.start.p0(i64 4, ptr nonnull %7) #12
  store i32 1, ptr %7, align 4, !tbaa !12
  %8 = call i32 @setsockopt(i32 noundef %0, i32 noundef 1, i32 noundef 2, ptr noundef nonnull %7, i32 noundef 4) #12
  %.not.i = icmp eq i32 %8, 0
  br i1 %.not.i, label %10, label %9

9:                                                ; preds = %5
  call void (ptr, i32, ptr, ...) @av_log(ptr noundef %4, i32 noundef 24, ptr noundef nonnull @.str.1) #12
  br label %10

10:                                               ; preds = %9, %5
  %11 = call i32 @bind(i32 noundef %0, ptr noundef %1, i32 noundef %2) #12
  %.not10.i = icmp eq i32 %11, 0
  br i1 %.not10.i, label %12, label %ff_listen.exit

12:                                               ; preds = %10
  %13 = call i32 @listen(i32 noundef %0, i32 noundef 1) #12
  %.not11.i = icmp eq i32 %13, 0
  br i1 %.not11.i, label %ff_listen.exit.thread, label %ff_listen.exit

ff_listen.exit.thread:                            ; preds = %12
  call void @llvm.lifetime.end.p0(i64 4, ptr nonnull %7) #12
  br label %18

ff_listen.exit:                                   ; preds = %10, %12
  %14 = tail call ptr @__errno_location() #13
  %15 = load i32, ptr %14, align 4, !tbaa !12
  %16 = sub nsw i32 0, %15
  call void @llvm.lifetime.end.p0(i64 4, ptr nonnull %7) #12
  %17 = icmp sgt i32 %15, 0
  br i1 %17, label %37, label %18

18:                                               ; preds = %ff_listen.exit.thread, %ff_listen.exit
  call void @llvm.lifetime.start.p0(i64 8, ptr nonnull %6) #12
  store i32 %0, ptr %6, align 4, !tbaa !4
  %19 = getelementptr inbounds nuw i8, ptr %6, i64 4
  store i16 1, ptr %19, align 4, !tbaa !10
  %20 = getelementptr inbounds nuw i8, ptr %6, i64 6
  store i16 0, ptr %20, align 2, !tbaa !11
  %21 = getelementptr inbounds nuw i8, ptr %4, i64 48
  %22 = call fastcc i32 @ff_poll_interrupt(ptr noundef %6, i64 noundef 1, i32 noundef %3, ptr noundef nonnull %21)
  %23 = icmp slt i32 %22, 0
  br i1 %23, label %ff_accept.exit.thread17, label %24

ff_accept.exit.thread17:                          ; preds = %18
  call void @llvm.lifetime.end.p0(i64 8, ptr nonnull %6) #12
  br label %37

24:                                               ; preds = %18
  %25 = call i32 @accept(i32 noundef %0, ptr noundef null, ptr noundef null) #12
  %26 = icmp slt i32 %25, 0
  br i1 %26, label %ff_accept.exit, label %27

27:                                               ; preds = %24
  %28 = call i32 @ff_socket_nonblock(i32 noundef %25, i32 noundef 1) #12
  %29 = icmp slt i32 %28, 0
  br i1 %29, label %30, label %ff_accept.exit.thread

30:                                               ; preds = %27
  call void (ptr, i32, ptr, ...) @av_log(ptr noundef nonnull %4, i32 noundef 48, ptr noundef nonnull @.str.2) #12
  br label %ff_accept.exit.thread

ff_accept.exit.thread:                            ; preds = %30, %27
  call void @llvm.lifetime.end.p0(i64 8, ptr nonnull %6) #12
  br label %35

ff_accept.exit:                                   ; preds = %24
  %31 = tail call ptr @__errno_location() #13
  %32 = load i32, ptr %31, align 4, !tbaa !12
  %33 = sub nsw i32 0, %32
  call void @llvm.lifetime.end.p0(i64 8, ptr nonnull %6) #12
  %34 = icmp sgt i32 %32, 0
  br i1 %34, label %37, label %35

35:                                               ; preds = %ff_accept.exit.thread, %ff_accept.exit
  %.0.i1316 = phi i32 [ %25, %ff_accept.exit.thread ], [ %33, %ff_accept.exit ]
  %36 = call i32 @close(i32 noundef %0) #12
  br label %37

37:                                               ; preds = %ff_accept.exit.thread17, %ff_accept.exit, %ff_listen.exit, %35
  %.0 = phi i32 [ %.0.i1316, %35 ], [ %16, %ff_listen.exit ], [ %33, %ff_accept.exit ], [ %22, %ff_accept.exit.thread17 ]
  ret i32 %.0
}